target datalayout = "e-m:e-p270:32:32-p271:32:32-p272:64:64-i64:64-i128:128-f80:128-n8:16:32:64-S128"
target triple = "x86_64-pc-linux-gnu"

%struct.xorkey_st = type { [32 x i8], [32 x i8], i32, i32, ptr, %struct.CRYPTO_REF_COUNT }
%struct.CRYPTO_REF_COUNT = type { i32 }
%struct.PROV_XORKEMKEX_CTX = type { ptr, ptr, ptr }

; Function Attrs: nounwind uwtable
define internal i32 @xor_derive(ptr noundef %0, ptr noundef %1, ptr noundef %2, i64 noundef %3) #0 {
  %5 = alloca i32, align 4
  %6 = alloca ptr, align 8
  %7 = alloca ptr, align 8
  %8 = alloca ptr, align 8
  %9 = alloca i64, align 8
  %10 = alloca ptr, align 8
  %11 = alloca i32, align 4
  %12 = alloca i32, align 4
  store ptr %0, ptr %6, align 8, !tbaa !13
  store ptr %1, ptr %7, align 8, !tbaa !30
  store ptr %2, ptr %8, align 8, !tbaa !66
  store i64 %3, ptr %9, align 8, !tbaa !35
  call void @llvm.lifetime.start.p0(i64 8, ptr %10) #8
  %13 = load ptr, ptr %6, align 8, !tbaa !13
  store ptr %13, ptr %10, align 8, !tbaa !13
  call void @llvm.lifetime.start.p0(i64 4, ptr %11) #8
  %14 = load ptr, ptr %10, align 8, !tbaa !13
  %15 = getelementptr inbounds nuw %struct.PROV_XORKEMKEX_CTX, ptr %14, i32 0, i32 0
  %16 = load ptr, ptr %15, align 8, !tbaa !65
  %17 = icmp eq ptr %16, null
  br i1 %17, label %23, label %18

18:                                               ; preds = %4
  %19 = load ptr, ptr %10, align 8, !tbaa !13
  %20 = getelementptr inbounds nuw %struct.PROV_XORKEMKEX_CTX, ptr %19, i32 0, i32 1
  %21 = load ptr, ptr %20, align 8, !tbaa !68
  %22 = icmp eq ptr %21, null
  br i1 %22, label %23, label %24

23:                                               ; preds = %18, %4
  store i32 0, ptr %5, align 4
  store i32 1, ptr %12, align 4
  br label %66

24:                                               ; preds = %18
  %25 = load ptr, ptr %8, align 8, !tbaa !66
  store i64 32, ptr %25, align 8, !tbaa !35
  %26 = load ptr, ptr %7, align 8, !tbaa !30
  %27 = icmp eq ptr %26, null
  br i1 %27, label %28, label %29

28:                                               ; preds = %24
  store i32 1, ptr %5, align 4
  store i32 1, ptr %12, align 4
  br label %66

29:                                               ; preds = %24
  %30 = load i64, ptr %9, align 8, !tbaa !35
  %31 = icmp ult i64 %30, 32
  br i1 %31, label %32, label %33

32:                                               ; preds = %29
  store i32 0, ptr %5, align 4
  store i32 1, ptr %12, align 4
  br label %66

33:                                               ; preds = %29
  store i32 0, ptr %11, align 4, !tbaa !27
  br label %34

34:                                               ; preds = %62, %33
  %35 = load i32, ptr %11, align 4, !tbaa !27
  %36 = icmp slt i32 %35, 32
  br i1 %36, label %37, label %65

37:                                               ; preds = %34
  %38 = load ptr, ptr %10, align 8, !tbaa !13
  %39 = getelementptr inbounds nuw %struct.PROV_XORKEMKEX_CTX, ptr %38, i32 0, i32 0
  %40 = load ptr, ptr %39, align 8, !tbaa !65
  %41 = getelementptr inbounds nuw %struct.xorkey_st, ptr %40, i32 0, i32 0
  %42 = load i32, ptr %11, align 4, !tbaa !27
  %43 = sext i32 %42 to i64
  %44 = getelementptr inbounds [32 x i8], ptr %41, i64 0, i64 %43
  %45 = load i8, ptr %44, align 1, !tbaa !51
  %46 = zext i8 %45 to i32
  %47 = load ptr, ptr %10, align 8, !tbaa !13
  %48 = getelementptr inbounds nuw %struct.PROV_XORKEMKEX_CTX, ptr %47, i32 0, i32 1
  %49 = load ptr, ptr %48, align 8, !tbaa !68
  %50 = getelementptr inbounds nuw %struct.xorkey_st, ptr %49, i32 0, i32 1
  %51 = load i32, ptr %11, align 4, !tbaa !27
  %52 = sext i32 %51 to i64
  %53 = getelementptr inbounds [32 x i8], ptr %50, i64 0, i64 %52
  %54 = load i8, ptr %53, align 1, !tbaa !51
  %55 = zext i8 %54 to i32
  %56 = xor i32 %46, %55
  %57 = trunc i32 %56 to i8
  %58 = load ptr, ptr %7, align 8, !tbaa !30
  %59 = load i32, ptr %11, align 4, !tbaa !27
  %60 = sext i32 %59 to i64
  %61 = getelementptr inbounds i8, ptr %58, i64 %60
  store i8 %57, ptr %61, align 1, !tbaa !51
  br label %62

62:                                               ; preds = %37
  %63 = load i32, ptr %11, align 4, !tbaa !27
  %64 = add nsw i32 %63, 1
  store i32 %64, ptr %11, align 4, !tbaa !27
  br label %34, !llvm.loop !69

65:                                               ; preds = %34
  store i32 1, ptr %5, align 4
  store i32 1, ptr %12, align 4
  br label %66

66:                                               ; preds = %65, %32, %28, %23
  call void @llvm.lifetime.end.p0(i64 4, ptr %11) #8
  call void @llvm.lifetime.end.p0(i64 8, ptr %10) #8
  %67 = load i32, ptr %5, align 4
  ret i32 %67
}