; Function Attrs: nofree norecurse nosync nounwind memory(read, argmem: readwrite, inaccessiblemem: none) uwtable
define internal range(i32 0, 2) i32 @xor_derive(ptr noundef readonly captures(none) %0, ptr noundef writeonly captures(address_is_null) %1, ptr noundef writeonly captures(none) %2, i64 noundef %3) #11 {
  %5 = load ptr, ptr %0, align 8, !tbaa !54
  %6 = icmp eq ptr %5, null
  br i1 %6, label %.loopexit, label %7

7:                                                ; preds = %4
  %8 = getelementptr inbounds nuw i8, ptr %0, i64 8
  %9 = load ptr, ptr %8, align 8, !tbaa !55
  %10 = icmp eq ptr %9, null
  br i1 %10, label %.loopexit, label %11

11:                                               ; preds = %7
  store i64 32, ptr %2, align 8, !tbaa !47
  %12 = icmp eq ptr %1, null
  br i1 %12, label %.loopexit, label %13

13:                                               ; preds = %11
  %14 = icmp ult i64 %3, 32
  br i1 %14, label %.loopexit, label %.preheader

.preheader:                                       ; preds = %13, %.preheader
  %indvars.iv = phi i64 [ %indvars.iv.next, %.preheader ], [ 0, %13 ]
  %15 = load ptr, ptr %0, align 8, !tbaa !54
  %16 = getelementptr inbounds nuw [32 x i8], ptr %15, i64 0, i64 %indvars.iv
  %17 = load i8, ptr %16, align 1, !tbaa !39
  %18 = load ptr, ptr %8, align 8, !tbaa !55
  %19 = getelementptr inbounds nuw i8, ptr %18, i64 32
  %20 = getelementptr inbounds nuw [32 x i8], ptr %19, i64 0, i64 %indvars.iv
  %21 = load i8, ptr %20, align 1, !tbaa !39
  %22 = xor i8 %21, %17
  %23 = getelementptr inbounds nuw i8, ptr %1, i64 %indvars.iv
  store i8 %22, ptr %23, align 1, !tbaa !39
  %indvars.iv.next = add nuw nsw i64 %indvars.iv, 1
  %exitcond.not = icmp eq i64 %indvars.iv.next, 32
  br i1 %exitcond.not, label %.loopexit, label %.preheader, !llvm.loop !56

.loopexit:                                        ; preds = %.preheader, %13, %11, %4, %7
  %.014 = phi i32 [ 0, %7 ], [ 0, %4 ], [ 1, %11 ], [ 0, %13 ], [ 1, %.preheader ]
  ret i32 %.014
}